; ModuleID = '46/2727.c'
source_filename = "46/2727.c"
target datalayout = "e-m:e-p270:32:32-p271:32:32-p272:64:64-i64:64-f80:128-n8:16:32:64-S128"
target triple = "x86_64-pc-linux-gnu"

@.str = private unnamed_addr constant [5 x i8] c"%d%d\00", align 1
@.str.1 = private unnamed_addr constant [3 x i8] c"%d\00", align 1
@.str.2 = private unnamed_addr constant [4 x i8] c"%d\0A\00", align 1

; Function Attrs: noinline nounwind uwtable
define dso_local i32 @main() #0 {
  %1 = alloca i32, align 4
  %2 = alloca i32, align 4
  %3 = alloca i32, align 4
  %4 = alloca [100 x [100 x i32]], align 16
  %5 = alloca i32, align 4
  %6 = alloca i32, align 4
  %7 = alloca i32, align 4
  %8 = alloca i32, align 4
  %9 = alloca i32, align 4
  %10 = alloca i32, align 4
  store i32 0, i32* %1, align 4
  store i32 0, i32* %10, align 4
  %11 = call i32 (i8*, ...) @__isoc99_scanf(i8* getelementptr inbounds ([5 x i8], [5 x i8]* @.str, i64 0, i64 0), i32* %2, i32* %3)
  store i32 0, i32* %5, align 4
  br label %12

12:                                               ; preds = %35, %0
  %13 = load i32, i32* %5, align 4
  %14 = load i32, i32* %2, align 4
  %15 = sub nsw i32 %14, 1
  %16 = icmp sle i32 %13, %15
  br i1 %16, label %17, label %38

17:                                               ; preds = %12
  store i32 0, i32* %6, align 4
  br label %18

18:                                               ; preds = %31, %17
  %19 = load i32, i32* %6, align 4
  %20 = load i32, i32* %3, align 4
  %21 = sub nsw i32 %20, 1
  %22 = icmp sle i32 %19, %21
  br i1 %22, label %23, label %34

23:                                               ; preds = %18
  %24 = load i32, i32* %5, align 4
  %25 = sext i32 %24 to i64
  %26 = getelementptr inbounds [100 x [100 x i32]], [100 x [100 x i32]]* %4, i64 0, i64 %25
  %27 = load i32, i32* %6, align 4
  %28 = sext i32 %27 to i64
  %29 = getelementptr inbounds [100 x i32], [100 x i32]* %26, i64 0, i64 %28
  %30 = call i32 (i8*, ...) @__isoc99_scanf(i8* getelementptr inbounds ([3 x i8], [3 x i8]* @.str.1, i64 0, i64 0), i32* %29)
  br label %31

31:                                               ; preds = %23
  %32 = load i32, i32* %6, align 4
  %33 = add nsw i32 %32, 1
  store i32 %33, i32* %6, align 4
  br label %18

34:                                               ; preds = %18
  br label %35

35:                                               ; preds = %34
  %36 = load i32, i32* %5, align 4
  %37 = add nsw i32 %36, 1
  store i32 %37, i32* %5, align 4
  br label %12

38:                                               ; preds = %12
  store i32 0, i32* %9, align 4
  store i32 0, i32* %7, align 4
  br label %39

39:                                               ; preds = %182, %38
  %40 = load i32, i32* %7, align 4
  %41 = mul nsw i32 2, %40
  %42 = load i32, i32* %2, align 4
  %43 = icmp sle i32 %41, %42
  br i1 %43, label %44, label %49

44:                                               ; preds = %39
  %45 = load i32, i32* %7, align 4
  %46 = mul nsw i32 2, %45
  %47 = load i32, i32* %3, align 4
  %48 = icmp sle i32 %46, %47
  br label %49

49:                                               ; preds = %44, %39
  %50 = phi i1 [ false, %39 ], [ %48, %44 ]
  br i1 %50, label %51, label %185

51:                                               ; preds = %49
  %52 = load i32, i32* %7, align 4
  store i32 %52, i32* %8, align 4
  br label %53

53:                                               ; preds = %71, %51
  %54 = load i32, i32* %8, align 4
  %55 = load i32, i32* %3, align 4
  %56 = sub nsw i32 %55, 1
  %57 = load i32, i32* %7, align 4
  %58 = sub nsw i32 %56, %57
  %59 = icmp sle i32 %54, %58
  br i1 %59, label %60, label %74

60:                                               ; preds = %53
  %61 = load i32, i32* %9, align 4
  %62 = sext i32 %61 to i64
  %63 = getelementptr inbounds [100 x [100 x i32]], [100 x [100 x i32]]* %4, i64 0, i64 %62
  %64 = load i32, i32* %8, align 4
  %65 = sext i32 %64 to i64
  %66 = getelementptr inbounds [100 x i32], [100 x i32]* %63, i64 0, i64 %65
  %67 = load i32, i32* %66, align 4
  %68 = call i32 (i8*, ...) @printf(i8* getelementptr inbounds ([4 x i8], [4 x i8]* @.str.2, i64 0, i64 0), i32 %67)
  %69 = load i32, i32* %10, align 4
  %70 = add nsw i32 %69, 1
  store i32 %70, i32* %10, align 4
  br label %71

71:                                               ; preds = %60
  %72 = load i32, i32* %8, align 4
  %73 = add nsw i32 %72, 1
  store i32 %73, i32* %8, align 4
  br label %53

74:                                               ; preds = %53
  %75 = load i32, i32* %10, align 4
  %76 = load i32, i32* %2, align 4
  %77 = load i32, i32* %3, align 4
  %78 = mul nsw i32 %76, %77
  %79 = icmp eq i32 %75, %78
  br i1 %79, label %80, label %81

80:                                               ; preds = %74
  br label %185

81:                                               ; preds = %74
  %82 = load i32, i32* %8, align 4
  %83 = sub nsw i32 %82, 1
  store i32 %83, i32* %8, align 4
  %84 = load i32, i32* %7, align 4
  %85 = add nsw i32 %84, 1
  store i32 %85, i32* %9, align 4
  br label %86

86:                                               ; preds = %104, %81
  %87 = load i32, i32* %9, align 4
  %88 = load i32, i32* %2, align 4
  %89 = sub nsw i32 %88, 1
  %90 = load i32, i32* %7, align 4
  %91 = sub nsw i32 %89, %90
  %92 = icmp sle i32 %87, %91
  br i1 %92, label %93, label %107

93:                                               ; preds = %86
  %94 = load i32, i32* %9, align 4
  %95 = sext i32 %94 to i64
  %96 = getelementptr inbounds [100 x [100 x i32]], [100 x [100 x i32]]* %4, i64 0, i64 %95
  %97 = load i32, i32* %8, align 4
  %98 = sext i32 %97 to i64
  %99 = getelementptr inbounds [100 x i32], [100 x i32]* %96, i64 0, i64 %98
  %100 = load i32, i32* %99, align 4
  %101 = call i32 (i8*, ...) @printf(i8* getelementptr inbounds ([4 x i8], [4 x i8]* @.str.2, i64 0, i64 0), i32 %100)
  %102 = load i32, i32* %10, align 4
  %103 = add nsw i32 %102, 1
  store i32 %103, i32* %10, align 4
  br label %104

104:                                              ; preds = %93
  %105 = load i32, i32* %9, align 4
  %106 = add nsw i32 %105, 1
  store i32 %106, i32* %9, align 4
  br label %86

107:                                              ; preds = %86
  %108 = load i32, i32* %10, align 4
  %109 = load i32, i32* %2, align 4
  %110 = load i32, i32* %3, align 4
  %111 = mul nsw i32 %109, %110
  %112 = icmp eq i32 %108, %111
  br i1 %112, label %113, label %114

113:                                              ; preds = %107
  br label %185

114:                                              ; preds = %107
  %115 = load i32, i32* %9, align 4
  %116 = sub nsw i32 %115, 1
  store i32 %116, i32* %9, align 4
  %117 = load i32, i32* %3, align 4
  %118 = sub nsw i32 %117, 2
  %119 = load i32, i32* %7, align 4
  %120 = sub nsw i32 %118, %119
  store i32 %120, i32* %8, align 4
  br label %121

121:                                              ; preds = %136, %114
  %122 = load i32, i32* %8, align 4
  %123 = load i32, i32* %7, align 4
  %124 = icmp sge i32 %122, %123
  br i1 %124, label %125, label %139

125:                                              ; preds = %121
  %126 = load i32, i32* %9, align 4
  %127 = sext i32 %126 to i64
  %128 = getelementptr inbounds [100 x [100 x i32]], [100 x [100 x i32]]* %4, i64 0, i64 %127
  %129 = load i32, i32* %8, align 4
  %130 = sext i32 %129 to i64
  %131 = getelementptr inbounds [100 x i32], [100 x i32]* %128, i64 0, i64 %130
  %132 = load i32, i32* %131, align 4
  %133 = call i32 (i8*, ...) @printf(i8* getelementptr inbounds ([4 x i8], [4 x i8]* @.str.2, i64 0, i64 0), i32 %132)
  %134 = load i32, i32* %10, align 4
  %135 = add nsw i32 %134, 1
  store i32 %135, i32* %10, align 4
  br label %136

136:                                              ; preds = %125
  %137 = load i32, i32* %8, align 4
  %138 = add nsw i32 %137, -1
  store i32 %138, i32* %8, align 4
  br label %121

139:                                              ; preds = %121
  %140 = load i32, i32* %10, align 4
  %141 = load i32, i32* %2, align 4
  %142 = load i32, i32* %3, align 4
  %143 = mul nsw i32 %141, %142
  %144 = icmp eq i32 %140, %143
  br i1 %144, label %145, label %146

145:                                              ; preds = %139
  br label %185

146:                                              ; preds = %139
  %147 = load i32, i32* %8, align 4
  %148 = add nsw i32 %147, 1
  store i32 %148, i32* %8, align 4
  %149 = load i32, i32* %2, align 4
  %150 = sub nsw i32 %149, 2
  %151 = load i32, i32* %7, align 4
  %152 = sub nsw i32 %150, %151
  store i32 %152, i32* %9, align 4
  br label %153

153:                                              ; preds = %169, %146
  %154 = load i32, i32* %9, align 4
  %155 = load i32, i32* %7, align 4
  %156 = add nsw i32 %155, 1
  %157 = icmp sge i32 %154, %156
  br i1 %157, label %158, label %172

158:                                              ; preds = %153
  %159 = load i32, i32* %9, align 4
  %160 = sext i32 %159 to i64
  %161 = getelementptr inbounds [100 x [100 x i32]], [100 x [100 x i32]]* %4, i64 0, i64 %160
  %162 = load i32, i32* %8, align 4
  %163 = sext i32 %162 to i64
  %164 = getelementptr inbounds [100 x i32], [100 x i32]* %161, i64 0, i64 %163
  %165 = load i32, i32* %164, align 4
  %166 = call i32 (i8*, ...) @printf(i8* getelementptr inbounds ([4 x i8], [4 x i8]* @.str.2, i64 0, i64 0), i32 %165)
  %167 = load i32, i32* %10, align 4
  %168 = add nsw i32 %167, 1
  store i32 %168, i32* %10, align 4
  br label %169

169:                                              ; preds = %158
  %170 = load i32, i32* %9, align 4
  %171 = add nsw i32 %170, -1
  store i32 %171, i32* %9, align 4
  br label %153

172:                                              ; preds = %153
  %173 = load i32, i32* %10, align 4
  %174 = load i32, i32* %2, align 4
  %175 = load i32, i32* %3, align 4
  %176 = mul nsw i32 %174, %175
  %177 = icmp eq i32 %173, %176
  br i1 %177, label %178, label %179

178:                                              ; preds = %172
  br label %185

179:                                              ; preds = %172
  %180 = load i32, i32* %9, align 4
  %181 = add nsw i32 %180, 1
  store i32 %181, i32* %9, align 4
  br label %182

182:                                              ; preds = %179
  %183 = load i32, i32* %7, align 4
  %184 = add nsw i32 %183, 1
  store i32 %184, i32* %7, align 4
  br label %39

185:                                              ; preds = %178, %145, %113, %80, %49
  ret i32 0
}

declare dso_local i32 @__isoc99_scanf(i8*, ...) #1

declare dso_local i32 @printf(i8*, ...) #1


!llvm.module.flags = !{!0}
!llvm.ident = !{!1}

!0 = !{i32 1, !"wchar_size", i32 4}
!1 = !{!"clang version 10.0.0-4ubuntu1 "}
